target datalayout = "e-m:e-p270:32:32-p271:32:32-p272:64:64-i64:64-i128:128-f80:128-n8:16:32:64-S128"
target triple = "x86_64-pc-linux-gnu"

%class.LibRaw = type { ptr, %struct.libraw_data_t, ptr, %struct.libraw_internal_data_t, [2048 x %struct.decode], ptr, ptr, [10 x %struct.tiff_ifd_t], %class.libraw_memmgr, %struct.libraw_callbacks_t, { i64, i64 }, { i64, i64 }, { i64, i64 }, ptr, ptr, ptr, i64, ptr, ptr, ptr, ptr }
%struct.libraw_data_t = type { ptr, %struct.libraw_image_sizes_t, %struct.libraw_iparams_t, %struct.libraw_lensinfo_t, %struct.libraw_makernotes_t, %struct.libraw_shootinginfo_t, %struct.libraw_output_params_t, %struct.libraw_raw_unpack_params_t, i32, i32, %struct.libraw_colordata_t, %struct.libraw_imgother_t, %struct.libraw_thumbnail_t, %struct.libraw_thumbnail_list_t, %struct.libraw_rawdata_t, ptr }
%struct.libraw_image_sizes_t = type { i16, i16, i16, i16, i16, i16, i16, i16, i32, double, i32, [8 x [4 x i32]], i16, [2 x %struct.libraw_raw_inset_crop_t] }
%struct.libraw_raw_inset_crop_t = type { i16, i16, i16, i16 }
%struct.libraw_iparams_t = type { [4 x i8], [64 x i8], [64 x i8], [64 x i8], [64 x i8], [64 x i8], i32, i32, i32, i32, i32, i32, [6 x [6 x i8]], [6 x [6 x i8]], [5 x i8], i32, ptr }
%struct.libraw_lensinfo_t = type { float, float, float, float, float, [128 x i8], [128 x i8], [128 x i8], [128 x i8], i16, %struct.libraw_nikonlens_t, %struct.libraw_dnglens_t, %struct.libraw_makernotes_lens_t }
%struct.libraw_nikonlens_t = type { float, i8, i8, i8, i8 }
%struct.libraw_dnglens_t = type { float, float, float, float }
%struct.libraw_makernotes_lens_t = type { i64, [128 x i8], i16, i16, i64, i16, i16, [64 x i8], i16, [16 x i8], [16 x i8], float, float, float, float, float, float, float, float, float, float, float, float, float, float, float, i64, [128 x i8], i64, [128 x i8], i64, [128 x i8], i16, float }
%struct.libraw_makernotes_t = type { %struct.libraw_canon_makernotes_t, %struct.libraw_nikon_makernotes_t, %struct.libraw_hasselblad_makernotes_t, %struct.libraw_fuji_info_t, %struct.libraw_olympus_makernotes_t, %struct.libraw_sony_info_t, %struct.libraw_kodak_makernotes_t, %struct.libraw_panasonic_makernotes_t, %struct.libraw_pentax_makernotes_t, %struct.libraw_p1_makernotes_t, %struct.libraw_ricoh_makernotes_t, %struct.libraw_samsung_makernotes_t, %struct.libraw_metadata_common_t }
%struct.libraw_canon_makernotes_t = type { i32, i32, i32, i32, [4 x i32], i32, [4 x i32], i16, i16, i8, i16, i16, i16, i16, i16, i16, i16, i16, i16, i16, i16, i16, i16, i32, float, i16, i16, i16, i32, i16, i32, i32, i16, i32, %struct.libraw_area_t, %struct.libraw_area_t, %struct.libraw_area_t, %struct.libraw_area_t, %struct.libraw_area_t, [2 x i16] }
%struct.libraw_area_t = type { i16, i16, i16, i16 }
%struct.libraw_nikon_makernotes_t = type { double, i16, i16, [7 x i8], i8, i8, [13 x i8], [20 x i8], [4 x i8], [4 x i8], [4 x i8], i8, i8, i8, i8, i8, [2 x i8], i8, i8, i8, i8, i8, [4 x i8], [4 x i8], i8, i16, i32, i32, i32, i32, [4 x double], i8, i8, i8, i32, i32, i32, i8, [4 x i16], i16, %struct.libraw_sensor_highspeed_crop_t, i16, i16, i16, i32, [20 x i8], [20 x i8], i32, i16, double, double, double }
%struct.libraw_sensor_highspeed_crop_t = type { i16, i16, i16, i16 }
%struct.libraw_hasselblad_makernotes_t = type { i32, double, [8 x i8], [64 x i8], [64 x i8], i32, i32, i32, i32, [32 x i8], [64 x i8], i32, [2 x i32], [2 x i32], [4 x [3 x double]] }
%struct.libraw_fuji_info_t = type { float, i16, i16, i16, i16, i16, i16, i16, i16, [33 x i8], [33 x i8], float, i16, i16, [2 x i16], i16, i32, i32, i16, [3 x i16], i16, i16, i16, i16, i16, i32, i16, [13 x i8], [5 x i8], [5 x i8], i32, i16, i32, i16, [9 x i16], [32 x i32], i32, i32, i32, [2 x float], i32 }
%struct.libraw_olympus_makernotes_t = type { [6 x i8], i16, [2 x i32], [5 x i16], i16, [2 x i16], i16, i16, [64 x i32], [5 x double], i16, i8, [3 x i16], [3 x i32], i16, i16, i16, i16, double, [4 x i16], [2 x i32], i8, i32, i16, i16 }
%struct.libraw_sony_info_t = type { i16, i8, i8, i32, i8, i32, i8, i8, i16, [2 x i16], i8, i8, i16, [10 x i8], i8, i8, [4 x i16], i16, i8, i8, i8, i16, i32, i16, [2 x i16], i16, i16, i16, i16, i16, i16, i16, i32, float, i16, i32, i32, i16, [20 x i8], i32, i16, i32, i8, i8, i16, i16, i16, i16, i16, i16, i16, i16, i16, i32, i16, [16 x i8], float }
%struct.libraw_kodak_makernotes_t = type { i16, i16, i16, i16, i16, i16, [3 x [3 x float]], [3 x [3 x float]], [3 x [3 x float]], [3 x [3 x float]], [3 x [3 x float]], [3 x [3 x float]], i16, i16, i16, i16, float, float }
%struct.libraw_panasonic_makernotes_t = type { i16, i16, [8 x float], i32, float, [3 x i32], i16, i16, i32, i32 }
%struct.libraw_pentax_makernotes_t = type { [4 x i8], [2 x i16], [2 x i16], i16, i32, i32, i16, i16, i8, i8, i16 }
%struct.libraw_p1_makernotes_t = type { [64 x i8], [64 x i8], [256 x i8], [64 x i8] }
%struct.libraw_ricoh_makernotes_t = type { i16, [2 x i32], [2 x i32], i16, i32, i32, i32, i32, i16, i16, i16, i16, i16, i16, double, double }
%struct.libraw_samsung_makernotes_t = type { [4 x i32], [4 x i32], [2 x i32], [11 x i32], double, i32, [32 x i8] }
%struct.libraw_metadata_common_t = type { float, float, float, float, float, float, float, float, float, float, float, float, float, float, float, float, i16, [128 x i8], float, [4 x %struct.libraw_afinfo_item_t], i32 }
%struct.libraw_afinfo_item_t = type { i32, i16, i32, i32, ptr }
%struct.libraw_shootinginfo_t = type { i16, i16, i16, i16, i16, i16, i16, [64 x i8], [64 x i8] }
%struct.libraw_output_params_t = type { [4 x i32], [4 x i32], [4 x double], [6 x double], [4 x float], float, float, i32, i32, i32, i32, i32, i32, i32, ptr, ptr, ptr, ptr, i32, i32, i32, i32, i32, i32, [4 x i32], i32, i32, float, float, i32, i32, i32, i32, i32, i32, i32, i32, float, float, i32, i32 }
%struct.libraw_raw_unpack_params_t = type { i32, i32, i32, i32, i32, i32, i32, float, [5 x i8], ptr }
%struct.libraw_colordata_t = type { [65536 x i16], [4104 x i32], i32, i32, i32, [4 x i64], float, float, [8 x [8 x i16]], [4 x float], [4 x float], [3 x [4 x float]], [3 x [4 x float]], [3 x [4 x float]], [4 x [3 x float]], %struct.ph1_t, float, float, [64 x i8], [64 x i8], [64 x i8], [64 x i8], [17 x i8], [64 x i8], ptr, i32, [8 x i32], [2 x %struct.libraw_dng_color_t], %struct.libraw_dng_levels_t, [256 x [4 x i32]], [64 x [5 x float]], i32, [2 x %struct.libraw_P1_color_t], i32, i32 }
%struct.ph1_t = type { i32, i32, i32, i32, i32, i32, i32, i32, float }
%struct.libraw_dng_color_t = type { i32, i16, [4 x [4 x float]], [4 x [3 x float]], [3 x [4 x float]] }
%struct.libraw_dng_levels_t = type { i32, [4104 x i32], i32, [4104 x float], float, [4 x i32], [4 x i16], [4 x float], i32, [4 x float], [4 x float], float, float }
%struct.libraw_P1_color_t = type { [9 x float] }
%struct.libraw_imgother_t = type { float, float, float, float, i64, i32, [32 x i32], %struct.libraw_gps_info_t, [512 x i8], [64 x i8], [4 x float] }
%struct.libraw_gps_info_t = type { [3 x float], [3 x float], [3 x float], float, i8, i8, i8, i8, i8 }
%struct.libraw_thumbnail_t = type { i32, i16, i16, i32, i32, ptr }
%struct.libraw_thumbnail_list_t = type { i32, [8 x %struct.libraw_thumbnail_item_t] }
%struct.libraw_thumbnail_item_t = type { i32, i16, i16, i16, i32, i32, i64 }
%struct.libraw_rawdata_t = type { ptr, ptr, ptr, ptr, ptr, ptr, ptr, ptr, ptr, %struct.libraw_iparams_t, %struct.libraw_image_sizes_t, %struct.libraw_internal_output_params_t, %struct.libraw_colordata_t }
%struct.libraw_internal_output_params_t = type { i32, i32, i32, i16, i16 }
%struct.libraw_internal_data_t = type { %struct.internal_data_t, %struct.libraw_internal_output_params_t, %struct.output_data_t, %struct.identify_data_t, %struct.unpacker_data_t }
%struct.internal_data_t = type { ptr, ptr, i32, ptr, i64, i64, [4 x i32] }
%struct.output_data_t = type { ptr, ptr }
%struct.identify_data_t = type { i32, i64, i64, i32, i32, i32 }
%struct.unpacker_data_t = type { i16, [4 x i16], [3 x i16], i32, i64, i64, i64, i64, i64, i64, i32, i32, i32, i32, i32, i32, i32, i32, i32, i32, i32, i32, i32, i32, i32, i32, i32, i64, i32, i32, i32, i32, i32, i32, i32, i32, i32, %struct.pana8_tags_t, [16 x %struct.crx_data_header_t], i32, i32, i16, i16, i32, i32, i32, i32, i32, i32, i32, [20 x i32], i16 }
%struct.pana8_tags_t = type { [6 x i32], [6 x i16], i16, [4 x i16], [17 x i16], [17 x i16], [17 x i16], i16, i16, [5 x i64], [5 x i16], [5 x i32], [5 x i16], [5 x i16] }
%struct.crx_data_header_t = type { i32, i32, i32, i32, i32, i32, i32, i32, i32, i32, i32, i32, i32, i32, i32, i64, i32, ptr, i32, i32, i32, ptr, i32, ptr }
%struct.decode = type { [2 x ptr], i32 }
%struct.tiff_ifd_t = type { i32, i32, i32, i32, i32, i32, i32, i32, i32, i32, i32, i32, i32, i32, i32, ptr, i32, ptr, i32, i32, i32, i32, i32, i32, i32, float, i64, i64, i32, [2 x %struct.libraw_dng_color_t], %struct.libraw_dng_levels_t, i32 }
%class.libraw_memmgr = type <{ ptr, i32, [4 x i8] }>
%struct.libraw_callbacks_t = type { ptr, ptr, ptr, ptr, ptr, ptr, ptr, ptr, ptr, ptr, ptr, ptr, ptr, ptr, ptr, ptr, ptr }

@.str = private unnamed_addr constant [6 x i8] c"D4040\00", align 1
@.str.1 = private unnamed_addr constant [6 x i8] c"D4041\00", align 1
@.str.2 = private unnamed_addr constant [6 x i8] c"K0055\00", align 1
@.str.3 = private unnamed_addr constant [6 x i8] c"S0003\00", align 1
@.str.4 = private unnamed_addr constant [6 x i8] c"S0018\00", align 1
@.str.5 = private unnamed_addr constant [6 x i8] c"S0023\00", align 1
@.str.6 = private unnamed_addr constant [6 x i8] c"S0029\00", align 1
@.str.7 = private unnamed_addr constant [6 x i8] c"S0030\00", align 1
@.str.8 = private unnamed_addr constant [6 x i8] c"S0033\00", align 1

; Function Attrs: mustprogress nounwind uwtable
define void @_ZN6LibRaw22setOlympusBodyFeaturesEy(ptr noundef nonnull align 8 dereferenceable(767680) %0, i64 noundef %1) #0 align 2 {
  %3 = alloca ptr, align 8
  %4 = alloca i64, align 8
  store ptr %0, ptr %3, align 8, !tbaa !6
  store i64 %1, ptr %4, align 8, !tbaa !11
  %5 = load ptr, ptr %3, align 8
  %6 = load i64, ptr %4, align 8, !tbaa !11
  %7 = getelementptr inbounds nuw %class.LibRaw, ptr %5, i32 0, i32 1
  %8 = getelementptr inbounds nuw %struct.libraw_data_t, ptr %7, i32 0, i32 3
  %9 = getelementptr inbounds nuw %struct.libraw_lensinfo_t, ptr %8, i32 0, i32 12
  %10 = getelementptr inbounds nuw %struct.libraw_makernotes_lens_t, ptr %9, i32 0, i32 4
  store i64 %6, ptr %10, align 8, !tbaa !13
  %11 = load i64, ptr %4, align 8, !tbaa !11
  %12 = load i8, ptr @.str, align 1, !tbaa !74
  %13 = sext i8 %12 to i64
  %14 = shl i64 %13, 32
  %15 = load i8, ptr getelementptr inbounds ([6 x i8], ptr @.str, i64 0, i64 1), align 1, !tbaa !74
  %16 = sext i8 %15 to i32
  %17 = shl i32 %16, 24
  %18 = sext i32 %17 to i64
  %19 = or i64 %14, %18
  %20 = load i8, ptr getelementptr inbounds ([6 x i8], ptr @.str, i64 0, i64 2), align 1, !tbaa !74
  %21 = sext i8 %20 to i32
  %22 = shl i32 %21, 16
  %23 = sext i32 %22 to i64
  %24 = or i64 %19, %23
  %25 = load i8, ptr getelementptr inbounds ([6 x i8], ptr @.str, i64 0, i64 3), align 1, !tbaa !74
  %26 = sext i8 %25 to i32
  %27 = shl i32 %26, 8
  %28 = sext i32 %27 to i64
  %29 = or i64 %24, %28
  %30 = load i8, ptr getelementptr inbounds ([6 x i8], ptr @.str, i64 0, i64 4), align 1, !tbaa !74
  %31 = sext i8 %30 to i64
  %32 = or i64 %29, %31
  %33 = icmp eq i64 %11, %32
  br i1 %33, label %86, label %34

34:                                               ; preds = %2
  %35 = load i64, ptr %4, align 8, !tbaa !11
  %36 = load i8, ptr @.str.1, align 1, !tbaa !74
  %37 = sext i8 %36 to i64
  %38 = shl i64 %37, 32
  %39 = load i8, ptr getelementptr inbounds ([6 x i8], ptr @.str.1, i64 0, i64 1), align 1, !tbaa !74
  %40 = sext i8 %39 to i32
  %41 = shl i32 %40, 24
  %42 = sext i32 %41 to i64
  %43 = or i64 %38, %42
  %44 = load i8, ptr getelementptr inbounds ([6 x i8], ptr @.str.1, i64 0, i64 2), align 1, !tbaa !74
  %45 = sext i8 %44 to i32
  %46 = shl i32 %45, 16
  %47 = sext i32 %46 to i64
  %48 = or i64 %43, %47
  %49 = load i8, ptr getelementptr inbounds ([6 x i8], ptr @.str.1, i64 0, i64 3), align 1, !tbaa !74
  %50 = sext i8 %49 to i32
  %51 = shl i32 %50, 8
  %52 = sext i32 %51 to i64
  %53 = or i64 %48, %52
  %54 = load i8, ptr getelementptr inbounds ([6 x i8], ptr @.str.1, i64 0, i64 4), align 1, !tbaa !74
  %55 = sext i8 %54 to i64
  %56 = or i64 %53, %55
  %57 = icmp eq i64 %35, %56
  br i1 %57, label %86, label %58

58:                                               ; preds = %34
  %59 = load i64, ptr %4, align 8, !tbaa !11
  %60 = load i8, ptr @.str.2, align 1, !tbaa !74
  %61 = sext i8 %60 to i64
  %62 = shl i64 %61, 32
  %63 = load i8, ptr getelementptr inbounds ([6 x i8], ptr @.str.2, i64 0, i64 1), align 1, !tbaa !74
  %64 = sext i8 %63 to i32
  %65 = shl i32 %64, 24
  %66 = sext i32 %65 to i64
  %67 = or i64 %62, %66
  %68 = load i8, ptr getelementptr inbounds ([6 x i8], ptr @.str.2, i64 0, i64 2), align 1, !tbaa !74
  %69 = sext i8 %68 to i32
  %70 = shl i32 %69, 16
  %71 = sext i32 %70 to i64
  %72 = or i64 %67, %71
  %73 = load i8, ptr getelementptr inbounds ([6 x i8], ptr @.str.2, i64 0, i64 3), align 1, !tbaa !74
  %74 = sext i8 %73 to i32
  %75 = shl i32 %74, 8
  %76 = sext i32 %75 to i64
  %77 = or i64 %72, %76
  %78 = load i8, ptr getelementptr inbounds ([6 x i8], ptr @.str.2, i64 0, i64 4), align 1, !tbaa !74
  %79 = sext i8 %78 to i64
  %80 = or i64 %77, %79
  %81 = icmp eq i64 %59, %80
  br i1 %81, label %86, label %82

82:                                               ; preds = %58
  %83 = load i64, ptr %4, align 8, !tbaa !11
  %84 = and i64 %83, 1099494850560
  %85 = icmp eq i64 %84, 357287591936
  br i1 %85, label %86, label %293

86:                                               ; preds = %82, %58, %34, %2
  %87 = getelementptr inbounds nuw %class.LibRaw, ptr %5, i32 0, i32 1
  %88 = getelementptr inbounds nuw %struct.libraw_data_t, ptr %87, i32 0, i32 3
  %89 = getelementptr inbounds nuw %struct.libraw_lensinfo_t, ptr %88, i32 0, i32 12
  %90 = getelementptr inbounds nuw %struct.libraw_makernotes_lens_t, ptr %89, i32 0, i32 5
  store i16 8, ptr %90, align 8, !tbaa !75
  %91 = load i64, ptr %4, align 8, !tbaa !11
  %92 = load i8, ptr @.str, align 1, !tbaa !74
  %93 = sext i8 %92 to i64
  %94 = shl i64 %93, 32
  %95 = load i8, ptr getelementptr inbounds ([6 x i8], ptr @.str, i64 0, i64 1), align 1, !tbaa !74
  %96 = sext i8 %95 to i32
  %97 = shl i32 %96, 24
  %98 = sext i32 %97 to i64
  %99 = or i64 %94, %98
  %100 = load i8, ptr getelementptr inbounds ([6 x i8], ptr @.str, i64 0, i64 2), align 1, !tbaa !74
  %101 = sext i8 %100 to i32
  %102 = shl i32 %101, 16
  %103 = sext i32 %102 to i64
  %104 = or i64 %99, %103
  %105 = load i8, ptr getelementptr inbounds ([6 x i8], ptr @.str, i64 0, i64 3), align 1, !tbaa !74
  %106 = sext i8 %105 to i32
  %107 = shl i32 %106, 8
  %108 = sext i32 %107 to i64
  %109 = or i64 %104, %108
  %110 = load i8, ptr getelementptr inbounds ([6 x i8], ptr @.str, i64 0, i64 4), align 1, !tbaa !74
  %111 = sext i8 %110 to i64
  %112 = or i64 %109, %111
  %113 = icmp eq i64 %91, %112
  br i1 %113, label %282, label %114

114:                                              ; preds = %86
  %115 = load i64, ptr %4, align 8, !tbaa !11
  %116 = load i8, ptr @.str.1, align 1, !tbaa !74
  %117 = sext i8 %116 to i64
  %118 = shl i64 %117, 32
  %119 = load i8, ptr getelementptr inbounds ([6 x i8], ptr @.str.1, i64 0, i64 1), align 1, !tbaa !74
  %120 = sext i8 %119 to i32
  %121 = shl i32 %120, 24
  %122 = sext i32 %121 to i64
  %123 = or i64 %118, %122
  %124 = load i8, ptr getelementptr inbounds ([6 x i8], ptr @.str.1, i64 0, i64 2), align 1, !tbaa !74
  %125 = sext i8 %124 to i32
  %126 = shl i32 %125, 16
  %127 = sext i32 %126 to i64
  %128 = or i64 %123, %127
  %129 = load i8, ptr getelementptr inbounds ([6 x i8], ptr @.str.1, i64 0, i64 3), align 1, !tbaa !74
  %130 = sext i8 %129 to i32
  %131 = shl i32 %130, 8
  %132 = sext i32 %131 to i64
  %133 = or i64 %128, %132
  %134 = load i8, ptr getelementptr inbounds ([6 x i8], ptr @.str.1, i64 0, i64 4), align 1, !tbaa !74
  %135 = sext i8 %134 to i64
  %136 = or i64 %133, %135
  %137 = icmp eq i64 %115, %136
  br i1 %137, label %282, label %138

138:                                              ; preds = %114
  %139 = load i64, ptr %4, align 8, !tbaa !11
  %140 = load i8, ptr @.str.3, align 1, !tbaa !74
  %141 = sext i8 %140 to i64
  %142 = shl i64 %141, 32
  %143 = load i8, ptr getelementptr inbounds ([6 x i8], ptr @.str.3, i64 0, i64 1), align 1, !tbaa !74
  %144 = sext i8 %143 to i32
  %145 = shl i32 %144, 24
  %146 = sext i32 %145 to i64
  %147 = or i64 %142, %146
  %148 = load i8, ptr getelementptr inbounds ([6 x i8], ptr @.str.3, i64 0, i64 2), align 1, !tbaa !74
  %149 = sext i8 %148 to i32
  %150 = shl i32 %149, 16
  %151 = sext i32 %150 to i64
  %152 = or i64 %147, %151
  %153 = load i8, ptr getelementptr inbounds ([6 x i8], ptr @.str.3, i64 0, i64 3), align 1, !tbaa !74
  %154 = sext i8 %153 to i32
  %155 = shl i32 %154, 8
  %156 = sext i32 %155 to i64
  %157 = or i64 %152, %156
  %158 = load i8, ptr getelementptr inbounds ([6 x i8], ptr @.str.3, i64 0, i64 4), align 1, !tbaa !74
  %159 = sext i8 %158 to i64
  %160 = or i64 %157, %159
  %161 = icmp uge i64 %139, %160
  br i1 %161, label %162, label %186

162:                                              ; preds = %138
  %163 = load i64, ptr %4, align 8, !tbaa !11
  %164 = load i8, ptr @.str.4, align 1, !tbaa !74
  %165 = sext i8 %164 to i64
  %166 = shl i64 %165, 32
  %167 = load i8, ptr getelementptr inbounds ([6 x i8], ptr @.str.4, i64 0, i64 1), align 1, !tbaa !74
  %168 = sext i8 %167 to i32
  %169 = shl i32 %168, 24
  %170 = sext i32 %169 to i64
  %171 = or i64 %166, %170
  %172 = load i8, ptr getelementptr inbounds ([6 x i8], ptr @.str.4, i64 0, i64 2), align 1, !tbaa !74
  %173 = sext i8 %172 to i32
  %174 = shl i32 %173, 16
  %175 = sext i32 %174 to i64
  %176 = or i64 %171, %175
  %177 = load i8, ptr getelementptr inbounds ([6 x i8], ptr @.str.4, i64 0, i64 3), align 1, !tbaa !74
  %178 = sext i8 %177 to i32
  %179 = shl i32 %178, 8
  %180 = sext i32 %179 to i64
  %181 = or i64 %176, %180
  %182 = load i8, ptr getelementptr inbounds ([6 x i8], ptr @.str.4, i64 0, i64 4), align 1, !tbaa !74
  %183 = sext i8 %182 to i64
  %184 = or i64 %181, %183
  %185 = icmp ule i64 %163, %184
  br i1 %185, label %282, label %186

186:                                              ; preds = %162, %138
  %187 = load i64, ptr %4, align 8, !tbaa !11
  %188 = load i8, ptr @.str.5, align 1, !tbaa !74
  %189 = sext i8 %188 to i64
  %190 = shl i64 %189, 32
  %191 = load i8, ptr getelementptr inbounds ([6 x i8], ptr @.str.5, i64 0, i64 1), align 1, !tbaa !74
  %192 = sext i8 %191 to i32
  %193 = shl i32 %192, 24
  %194 = sext i32 %193 to i64
  %195 = or i64 %190, %194
  %196 = load i8, ptr getelementptr inbounds ([6 x i8], ptr @.str.5, i64 0, i64 2), align 1, !tbaa !74
  %197 = sext i8 %196 to i32
  %198 = shl i32 %197, 16
  %199 = sext i32 %198 to i64
  %200 = or i64 %195, %199
  %201 = load i8, ptr getelementptr inbounds ([6 x i8], ptr @.str.5, i64 0, i64 3), align 1, !tbaa !74
  %202 = sext i8 %201 to i32
  %203 = shl i32 %202, 8
  %204 = sext i32 %203 to i64
  %205 = or i64 %200, %204
  %206 = load i8, ptr getelementptr inbounds ([6 x i8], ptr @.str.5, i64 0, i64 4), align 1, !tbaa !74
  %207 = sext i8 %206 to i64
  %208 = or i64 %205, %207
  %209 = icmp eq i64 %187, %208
  br i1 %209, label %282, label %210

210:                                              ; preds = %186
  %211 = load i64, ptr %4, align 8, !tbaa !11
  %212 = load i8, ptr @.str.6, align 1, !tbaa !74
  %213 = sext i8 %212 to i64
  %214 = shl i64 %213, 32
  %215 = load i8, ptr getelementptr inbounds ([6 x i8], ptr @.str.6, i64 0, i64 1), align 1, !tbaa !74
  %216 = sext i8 %215 to i32
  %217 = shl i32 %216, 24
  %218 = sext i32 %217 to i64
  %219 = or i64 %214, %218
  %220 = load i8, ptr getelementptr inbounds ([6 x i8], ptr @.str.6, i64 0, i64 2), align 1, !tbaa !74
  %221 = sext i8 %220 to i32
  %222 = shl i32 %221, 16
  %223 = sext i32 %222 to i64
  %224 = or i64 %219, %223
  %225 = load i8, ptr getelementptr inbounds ([6 x i8], ptr @.str.6, i64 0, i64 3), align 1, !tbaa !74
  %226 = sext i8 %225 to i32
  %227 = shl i32 %226, 8
  %228 = sext i32 %227 to i64
  %229 = or i64 %224, %228
  %230 = load i8, ptr getelementptr inbounds ([6 x i8], ptr @.str.6, i64 0, i64 4), align 1, !tbaa !74
  %231 = sext i8 %230 to i64
  %232 = or i64 %229, %231
  %233 = icmp eq i64 %211, %232
  br i1 %233, label %282, label %234

234:                                              ; preds = %210
  %235 = load i64, ptr %4, align 8, !tbaa !11
  %236 = load i8, ptr @.str.7, align 1, !tbaa !74
  %237 = sext i8 %236 to i64
  %238 = shl i64 %237, 32
  %239 = load i8, ptr getelementptr inbounds ([6 x i8], ptr @.str.7, i64 0, i64 1), align 1, !tbaa !74
  %240 = sext i8 %239 to i32
  %241 = shl i32 %240, 24
  %242 = sext i32 %241 to i64
  %243 = or i64 %238, %242
  %244 = load i8, ptr getelementptr inbounds ([6 x i8], ptr @.str.7, i64 0, i64 2), align 1, !tbaa !74
  %245 = sext i8 %244 to i32
  %246 = shl i32 %245, 16
  %247 = sext i32 %246 to i64
  %248 = or i64 %243, %247
  %249 = load i8, ptr getelementptr inbounds ([6 x i8], ptr @.str.7, i64 0, i64 3), align 1, !tbaa !74
  %250 = sext i8 %249 to i32
  %251 = shl i32 %250, 8
  %252 = sext i32 %251 to i64
  %253 = or i64 %248, %252
  %254 = load i8, ptr getelementptr inbounds ([6 x i8], ptr @.str.7, i64 0, i64 4), align 1, !tbaa !74
  %255 = sext i8 %254 to i64
  %256 = or i64 %253, %255
  %257 = icmp eq i64 %235, %256
  br i1 %257, label %282, label %258

258:                                              ; preds = %234
  %259 = load i64, ptr %4, align 8, !tbaa !11
  %260 = load i8, ptr @.str.8, align 1, !tbaa !74
  %261 = sext i8 %260 to i64
  %262 = shl i64 %261, 32
  %263 = load i8, ptr getelementptr inbounds ([6 x i8], ptr @.str.8, i64 0, i64 1), align 1, !tbaa !74
  %264 = sext i8 %263 to i32
  %265 = shl i32 %264, 24
  %266 = sext i32 %265 to i64
  %267 = or i64 %262, %266
  %268 = load i8, ptr getelementptr inbounds ([6 x i8], ptr @.str.8, i64 0, i64 2), align 1, !tbaa !74
  %269 = sext i8 %268 to i32
  %270 = shl i32 %269, 16
  %271 = sext i32 %270 to i64
  %272 = or i64 %267, %271
  %273 = load i8, ptr getelementptr inbounds ([6 x i8], ptr @.str.8, i64 0, i64 3), align 1, !tbaa !74
  %274 = sext i8 %273 to i32
  %275 = shl i32 %274, 8
  %276 = sext i32 %275 to i64
  %277 = or i64 %272, %276
  %278 = load i8, ptr getelementptr inbounds ([6 x i8], ptr @.str.8, i64 0, i64 4), align 1, !tbaa !74
  %279 = sext i8 %278 to i64
  %280 = or i64 %277, %279
  %281 = icmp eq i64 %259, %280
  br i1 %281, label %282, label %287

282:                                              ; preds = %258, %234, %210, %186, %162, %114, %86
  %283 = getelementptr inbounds nuw %class.LibRaw, ptr %5, i32 0, i32 1
  %284 = getelementptr inbounds nuw %struct.libraw_data_t, ptr %283, i32 0, i32 3
  %285 = getelementptr inbounds nuw %struct.libraw_lensinfo_t, ptr %284, i32 0, i32 12
  %286 = getelementptr inbounds nuw %struct.libraw_makernotes_lens_t, ptr %285, i32 0, i32 6
  store i16 9, ptr %286, align 2, !tbaa !76
  br label %292

287:                                              ; preds = %258
  %288 = getelementptr inbounds nuw %class.LibRaw, ptr %5, i32 0, i32 1
  %289 = getelementptr inbounds nuw %struct.libraw_data_t, ptr %288, i32 0, i32 3
  %290 = getelementptr inbounds nuw %struct.libraw_lensinfo_t, ptr %289, i32 0, i32 12
  %291 = getelementptr inbounds nuw %struct.libraw_makernotes_lens_t, ptr %290, i32 0, i32 6
  store i16 10, ptr %291, align 2, !tbaa !76
  br label %292

292:                                              ; preds = %287, %282
  br label %302

293:                                              ; preds = %82
  %294 = getelementptr inbounds nuw %class.LibRaw, ptr %5, i32 0, i32 1
  %295 = getelementptr inbounds nuw %struct.libraw_data_t, ptr %294, i32 0, i32 3
  %296 = getelementptr inbounds nuw %struct.libraw_lensinfo_t, ptr %295, i32 0, i32 12
  %297 = getelementptr inbounds nuw %struct.libraw_makernotes_lens_t, ptr %296, i32 0, i32 6
  store i16 43, ptr %297, align 2, !tbaa !76
  %298 = getelementptr inbounds nuw %class.LibRaw, ptr %5, i32 0, i32 1
  %299 = getelementptr inbounds nuw %struct.libraw_data_t, ptr %298, i32 0, i32 3
  %300 = getelementptr inbounds nuw %struct.libraw_lensinfo_t, ptr %299, i32 0, i32 12
  %301 = getelementptr inbounds nuw %struct.libraw_makernotes_lens_t, ptr %300, i32 0, i32 3
  store i16 43, ptr %301, align 2, !tbaa !77
  br label %302

302:                                              ; preds = %293, %292
  ret void
}