; Function Attrs: mustprogress nofree norecurse nosync nounwind willreturn memory(argmem: write) uwtable
define void @_ZN6LibRaw22setOlympusBodyFeaturesEy(ptr noundef nonnull writeonly align 8 captures(none) dereferenceable(767680) initializes((1344, 1352)) %0, i64 noundef %1) local_unnamed_addr #0 align 2 {
  %3 = getelementptr inbounds nuw i8, ptr %0, i64 1344
  store i64 %1, ptr %3, align 8, !tbaa !6
  %4 = and i64 %1, 1099494850560
  %5 = icmp eq i64 %4, 357287591936
  br i1 %5, label %9, label %switch.early.test

switch.early.test:                                ; preds = %2
  switch i64 %1, label %13 [
    i64 322931012917, label %6
    i64 292933350449, label %6
    i64 292933350448, label %6
  ]

6:                                                ; preds = %switch.early.test, %switch.early.test, %switch.early.test
  %7 = getelementptr inbounds nuw i8, ptr %0, i64 1352
  store i16 8, ptr %7, align 8, !tbaa !71
  %8 = and i64 %1, -2
  %switch = icmp eq i64 %8, 292933350448
  br i1 %switch, label %15, label %switch.early.test22

9:                                                ; preds = %2
  %10 = getelementptr inbounds nuw i8, ptr %0, i64 1352
  store i16 8, ptr %10, align 8, !tbaa !71
  %11 = add i64 %1, -357290750003
  %or.cond17 = icmp ult i64 %11, 262
  br i1 %or.cond17, label %15, label %switch.early.test22

switch.early.test22:                              ; preds = %6, %9
  switch i64 %1, label %12 [
    i64 357290750771, label %15
    i64 357290750768, label %15
    i64 357290750521, label %15
    i64 357290750515, label %15
  ]

12:                                               ; preds = %switch.early.test22
  br label %15

13:                                               ; preds = %switch.early.test
  %14 = getelementptr inbounds nuw i8, ptr %0, i64 1354
  store i16 43, ptr %14, align 2, !tbaa !72
  br label %15

15:                                               ; preds = %9, %switch.early.test22, %switch.early.test22, %switch.early.test22, %switch.early.test22, %6, %12, %13
  %.sink28 = phi i64 [ 1354, %12 ], [ 1338, %13 ], [ 1354, %6 ], [ 1354, %switch.early.test22 ], [ 1354, %switch.early.test22 ], [ 1354, %switch.early.test22 ], [ 1354, %switch.early.test22 ], [ 1354, %9 ]
  %.sink = phi i16 [ 10, %12 ], [ 43, %13 ], [ 9, %6 ], [ 9, %switch.early.test22 ], [ 9, %switch.early.test22 ], [ 9, %switch.early.test22 ], [ 9, %switch.early.test22 ], [ 9, %9 ]
  %16 = getelementptr inbounds nuw i8, ptr %0, i64 %.sink28
  store i16 %.sink, ptr %16, align 2, !tbaa !73
  ret void
}